target datalayout = "e-m:e-p270:32:32-p271:32:32-p272:64:64-i64:64-i128:128-f80:128-n8:16:32:64-S128"
target triple = "x86_64-pc-linux-gnu"

%struct.PyMemAllocatorEx = type { ptr, ptr, ptr, ptr, ptr }
%struct.anon.1 = type { i32, i32, i64 }

@FmData = internal global %struct.anon.1 zeroinitializer, align 8

; Function Attrs: nounwind uwtable
define internal i32 @fm_nomemory() #0 {
  %1 = alloca i32, align 4
  %2 = load i64, ptr getelementptr inbounds nuw (%struct.anon.1, ptr @FmData, i32 0, i32 2), align 8, !tbaa !13
  %3 = add i64 %2, 1
  store i64 %3, ptr getelementptr inbounds nuw (%struct.anon.1, ptr @FmData, i32 0, i32 2), align 8, !tbaa !13
  %4 = load i64, ptr getelementptr inbounds nuw (%struct.anon.1, ptr @FmData, i32 0, i32 2), align 8, !tbaa !13
  %5 = load i32, ptr @FmData, align 8, !tbaa !38
  %6 = sext i32 %5 to i64
  %7 = icmp sgt i64 %4, %6
  br i1 %7, label %8, label %17

8:                                                ; preds = %0
  %9 = load i32, ptr getelementptr inbounds nuw (%struct.anon.1, ptr @FmData, i32 0, i32 1), align 4, !tbaa !17
  %10 = icmp sle i32 %9, 0
  br i1 %10, label %16, label %11

11:                                               ; preds = %8
  %12 = load i64, ptr getelementptr inbounds nuw (%struct.anon.1, ptr @FmData, i32 0, i32 2), align 8, !tbaa !13
  %13 = load i32, ptr getelementptr inbounds nuw (%struct.anon.1, ptr @FmData, i32 0, i32 1), align 4, !tbaa !17
  %14 = sext i32 %13 to i64
  %15 = icmp sle i64 %12, %14
  br i1 %15, label %16, label %17

16:                                               ; preds = %11, %8
  store i32 1, ptr %1, align 4
  br label %18

17:                                               ; preds = %11, %0
  store i32 0, ptr %1, align 4
  br label %18

18:                                               ; preds = %17, %16
  %19 = load i32, ptr %1, align 4
  ret i32 %19
}

; Function Attrs: nounwind uwtable
define internal ptr @hook_fcalloc(ptr noundef %0, i64 noundef %1, i64 noundef %2) #0 {
  %4 = alloca ptr, align 8
  %5 = alloca ptr, align 8
  %6 = alloca i64, align 8
  %7 = alloca i64, align 8
  %8 = alloca ptr, align 8
  %9 = alloca i32, align 4
  store ptr %0, ptr %5, align 8, !tbaa !18
  store i64 %1, ptr %6, align 8, !tbaa !22
  store i64 %2, ptr %7, align 8, !tbaa !22
  call void @llvm.lifetime.start.p0(i64 8, ptr %8) #6
  %10 = load ptr, ptr %5, align 8, !tbaa !18
  store ptr %10, ptr %8, align 8, !tbaa !18
  %11 = call i32 @fm_nomemory()
  %12 = icmp ne i32 %11, 0
  br i1 %12, label %13, label %14

13:                                               ; preds = %3
  store ptr null, ptr %4, align 8
  store i32 1, ptr %9, align 4
  br label %24

14:                                               ; preds = %3
  %15 = load ptr, ptr %8, align 8, !tbaa !18
  %16 = getelementptr inbounds nuw %struct.PyMemAllocatorEx, ptr %15, i32 0, i32 2
  %17 = load ptr, ptr %16, align 8, !tbaa !34
  %18 = load ptr, ptr %8, align 8, !tbaa !18
  %19 = getelementptr inbounds nuw %struct.PyMemAllocatorEx, ptr %18, i32 0, i32 0
  %20 = load ptr, ptr %19, align 8, !tbaa !37
  %21 = load i64, ptr %6, align 8, !tbaa !22
  %22 = load i64, ptr %7, align 8, !tbaa !22
  %23 = call ptr %17(ptr noundef %20, i64 noundef %21, i64 noundef %22)
  store ptr %23, ptr %4, align 8
  store i32 1, ptr %9, align 4
  br label %24

24:                                               ; preds = %14, %13
  call void @llvm.lifetime.end.p0(i64 8, ptr %8) #6
  %25 = load ptr, ptr %4, align 8
  ret ptr %25
}