; Function Attrs: nounwind uwtable
define internal ptr @hook_fcalloc(ptr noundef readonly captures(none) %0, i64 noundef %1, i64 noundef %2) #0 {
  %4 = load i64, ptr getelementptr inbounds nuw (i8, ptr @FmData, i64 8), align 8, !tbaa !11
  %5 = add i64 %4, 1
  store i64 %5, ptr getelementptr inbounds nuw (i8, ptr @FmData, i64 8), align 8, !tbaa !11
  %6 = load i32, ptr @FmData, align 8, !tbaa !30
  %7 = sext i32 %6 to i64
  %8 = icmp sgt i64 %5, %7
  br i1 %8, label %9, label %13

9:                                                ; preds = %3
  %10 = load i32, ptr getelementptr inbounds nuw (i8, ptr @FmData, i64 4), align 4, !tbaa !14
  %11 = icmp sgt i32 %10, 0
  %12 = zext nneg i32 %10 to i64
  %.not.i = icmp sgt i64 %5, %12
  %or.cond.i = select i1 %11, i1 %.not.i, i1 false
  br i1 %or.cond.i, label %13, label %fm_nomemory.exit

13:                                               ; preds = %3, %9
  %14 = getelementptr inbounds nuw i8, ptr %0, i64 16
  %15 = load ptr, ptr %14, align 8, !tbaa !16
  %16 = load ptr, ptr %0, align 8, !tbaa !19
  %17 = tail call ptr %15(ptr noundef %16, i64 noundef %1, i64 noundef %2) #4
  br label %fm_nomemory.exit

fm_nomemory.exit:                                 ; preds = %9, %13
  %.0 = phi ptr [ %17, %13 ], [ null, %9 ]
  ret ptr %.0
}